; Function Attrs: nounwind uwtable
define dso_local i64 @array_agg_array_finalfn(ptr noundef captures(none) %0) local_unnamed_addr #0 {
  %2 = getelementptr inbounds nuw i8, ptr %0, i64 40
  %3 = load i8, ptr %2, align 8, !range !4, !noundef !5
  %4 = trunc nuw i8 %3 to i1
  br i1 %4, label %.thread, label %5

5:                                                ; preds = %1
  %6 = getelementptr inbounds nuw i8, ptr %0, i64 32
  %7 = load i64, ptr %6, align 8
  %8 = icmp eq i64 %7, 0
  br i1 %8, label %.thread, label %10

.thread:                                          ; preds = %1, %5
  %9 = getelementptr inbounds nuw i8, ptr %0, i64 28
  store i8 1, ptr %9, align 4
  br label %14

10:                                               ; preds = %5
  %11 = inttoptr i64 %7 to ptr
  %12 = load ptr, ptr @CurrentMemoryContext, align 8
  %13 = tail call i64 @makeArrayResultArr(ptr noundef nonnull %11, ptr noundef %12, i1 noundef zeroext false) #10
  br label %14

14:                                               ; preds = %10, %.thread
  %.0 = phi i64 [ 0, %.thread ], [ %13, %10 ]
  ret i64 %.0
}